; Function Attrs: nounwind uwtable
define i32 @uv_fs_symlink(ptr noundef %loop, ptr noundef %req, ptr noundef %path, ptr noundef %new_path, i32 noundef %flags, ptr noundef %cb) local_unnamed_addr #0 {
entry:
  %cmp = icmp eq ptr %req, null
  br i1 %cmp, label %do.end42, label %do.body1

do.body1:                                         ; preds = %entry
  %type = getelementptr inbounds nuw i8, ptr %req, i64 8
  store i32 6, ptr %type, align 8
  %fs_type = getelementptr inbounds nuw i8, ptr %req, i64 64
  store i32 24, ptr %fs_type, align 8
  %result = getelementptr inbounds nuw i8, ptr %req, i64 88
  %loop2 = getelementptr inbounds nuw i8, ptr %req, i64 72
  tail call void @llvm.memset.p0.i64(ptr noundef nonnull align 8 dereferenceable(16) %result, i8 0, i64 16, i1 false)
  store ptr %loop, ptr %loop2, align 8
  %path3 = getelementptr inbounds nuw i8, ptr %req, i64 104
  store ptr null, ptr %path3, align 8
  %new_path4 = getelementptr inbounds nuw i8, ptr %req, i64 272
  store ptr null, ptr %new_path4, align 8
  %bufs = getelementptr inbounds nuw i8, ptr %req, i64 296
  store ptr null, ptr %bufs, align 8
  %cb5 = getelementptr inbounds nuw i8, ptr %req, i64 80
  store ptr %cb, ptr %cb5, align 8
  %cmp8 = icmp eq ptr %cb, null
  br i1 %cmp8, label %if.else39, label %if.else

if.else:                                          ; preds = %do.body1
  %call = tail call i64 @strlen(ptr noundef nonnull dereferenceable(1) %path) #17
  %add = add i64 %call, 1
  %call12 = tail call i64 @strlen(ptr noundef nonnull dereferenceable(1) %new_path) #17
  %add13 = add i64 %call12, 1
  %add14 = add i64 %add13, %add
  %call15 = tail call ptr @uv__malloc(i64 noundef %add14) #15
  store ptr %call15, ptr %path3, align 8
  %cmp18 = icmp eq ptr %call15, null
  br i1 %cmp18, label %do.end42, label %if.then29

if.then29:                                        ; preds = %if.else
  %add.ptr = getelementptr inbounds i8, ptr %call15, i64 %add
  store ptr %add.ptr, ptr %new_path4, align 8
  tail call void @llvm.memcpy.p0.p0.i64(ptr nonnull align 1 %call15, ptr nonnull align 1 %path, i64 %add, i1 false)
  %0 = load ptr, ptr %new_path4, align 8
  tail call void @llvm.memcpy.p0.p0.i64(ptr align 1 %0, ptr nonnull align 1 %new_path, i64 %add13, i1 false)
  %flags27 = getelementptr inbounds nuw i8, ptr %req, i64 284
  store i32 %flags, ptr %flags27, align 4
  %call30 = tail call i32 @uv__iou_fs_symlink(ptr noundef %loop, ptr noundef nonnull %req) #15
  %tobool.not = icmp eq i32 %call30, 0
  br i1 %tobool.not, label %do.body37, label %do.end42

do.body37:                                        ; preds = %if.then29
  %active_reqs = getelementptr inbounds nuw i8, ptr %loop, i64 32
  %1 = load i32, ptr %active_reqs, align 8
  %inc = add i32 %1, 1
  store i32 %inc, ptr %active_reqs, align 8
  %work_req = getelementptr inbounds nuw i8, ptr %req, i64 336
  tail call void @uv__work_submit(ptr noundef %loop, ptr noundef nonnull %work_req, i32 noundef 1, ptr noundef nonnull @uv__fs_work, ptr noundef nonnull @uv__fs_done) #15
  br label %do.end42

if.else39:                                        ; preds = %do.body1
  store ptr %path, ptr %path3, align 8
  store ptr %new_path, ptr %new_path4, align 8
  %flags2736 = getelementptr inbounds nuw i8, ptr %req, i64 284
  store i32 %flags, ptr %flags2736, align 4
  %work_req40 = getelementptr inbounds nuw i8, ptr %req, i64 336
  tail call void @uv__fs_work(ptr noundef nonnull %work_req40)
  %2 = load i64, ptr %result, align 8
  %conv = trunc i64 %2 to i32
  br label %do.end42

do.end42:                                         ; preds = %if.then29, %if.else, %entry, %if.else39, %do.body37
  %retval.0 = phi i32 [ 0, %do.body37 ], [ %conv, %if.else39 ], [ -22, %entry ], [ -12, %if.else ], [ 0, %if.then29 ]
  ret i32 %retval.0
}